; Function Attrs: nofree norecurse nosync nounwind memory(read, inaccessiblemem: none) uwtable
define i32 @Abc_SclCountValidCells(ptr noundef readonly captures(none) %0) local_unnamed_addr #4 {
  %2 = getelementptr i8, ptr %0, i64 100
  %.val = load i32, ptr %2, align 4, !tbaa !21
  %3 = icmp sgt i32 %.val, 0
  br i1 %3, label %.lr.ph, label %.critedge

.lr.ph:                                           ; preds = %1
  %4 = getelementptr i8, ptr %0, i64 104
  %.val10 = load ptr, ptr %4, align 8, !tbaa !19
  %wide.trip.count = zext nneg i32 %.val to i64
  br label %5

5:                                                ; preds = %.lr.ph, %14
  %indvars.iv = phi i64 [ 0, %.lr.ph ], [ %indvars.iv.next, %14 ]
  %.012 = phi i32 [ 0, %.lr.ph ], [ %.1, %14 ]
  %6 = getelementptr inbounds nuw ptr, ptr %.val10, i64 %indvars.iv
  %7 = load ptr, ptr %6, align 8, !tbaa !22
  %8 = getelementptr inbounds nuw i8, ptr %7, i64 16
  %9 = load i32, ptr %8, align 8, !tbaa !100
  %.not = icmp eq i32 %9, 0
  br i1 %.not, label %10, label %14

10:                                               ; preds = %5
  %11 = getelementptr inbounds nuw i8, ptr %7, i64 20
  %12 = load i32, ptr %11, align 4, !tbaa !101
  %.not9 = icmp eq i32 %12, 0
  %13 = zext i1 %.not9 to i32
  %spec.select = add nsw i32 %.012, %13
  br label %14

14:                                               ; preds = %10, %5
  %.1 = phi i32 [ %.012, %5 ], [ %spec.select, %10 ]
  %indvars.iv.next = add nuw nsw i64 %indvars.iv, 1
  %exitcond.not = icmp eq i64 %indvars.iv.next, %wide.trip.count
  br i1 %exitcond.not, label %.critedge, label %5, !llvm.loop !102

.critedge:                                        ; preds = %14, %1
  %.0.lcssa = phi i32 [ 0, %1 ], [ %.1, %14 ]
  ret i32 %.0.lcssa
}